Certificate:
    Data:
        Version: 3 (0x2)
        Serial Number: 1 (0x1)
        Signature Algorithm: sha256WithRSAEncryption
        Issuer: C=ES, ST=Barcelona, L=Barcelona, O=NSAA/emailAddress=admin@example.org, CN=Radius Server Certificate Authority
        Validity
            Not Before: May 11 16:49:58 2024 GMT
            Not After : Jul 10 16:49:58 2024 GMT
        Subject: C=ES, ST=Barcelona, O=NSAA, OU=Radius Server, CN=127.0.0.1
        Subject Public Key Info:
            Public Key Algorithm: rsaEncryption
                Public-Key: (2048 bit)
                Modulus:
                    00:b1:16:79:8f:8e:f9:33:7f:c0:15:dc:14:3c:53:
                    78:69:c0:ec:60:24:b8:82:84:a0:c2:a8:f7:0b:15:
                    1b:c3:5b:ba:71:ae:52:cf:d3:6d:e2:55:6b:c4:d5:
                    e4:4e:cb:1b:25:a6:21:56:96:43:de:c9:9f:17:0c:
                    46:97:47:b2:95:18:0f:0b:7e:bf:eb:17:97:ec:bf:
                    17:8e:11:88:82:d2:b6:9f:e8:10:d7:41:7c:58:a6:
                    7a:2e:09:34:50:2d:04:56:70:23:34:a1:db:d8:de:
                    23:e3:d1:29:ee:02:e5:c9:2e:9c:08:b0:40:41:c1:
                    1c:39:47:7f:3c:cb:86:88:4b:71:8b:a8:8b:18:01:
                    d3:6d:fe:6b:48:72:d1:9d:de:a3:f9:b3:9f:4e:ae:
                    b7:dc:07:86:cf:5a:06:76:6c:71:01:b8:45:c2:1b:
                    5e:b0:c2:14:cc:9b:ec:bb:e4:89:ee:4a:4c:42:52:
                    ec:cc:5a:55:46:fc:f8:56:b2:18:53:3f:84:99:67:
                    c2:99:6d:b2:49:b3:62:d9:0b:28:3e:79:32:87:89:
                    21:5a:bd:d3:86:e1:39:c2:21:94:9f:43:28:0a:50:
                    0e:5a:b1:42:10:d6:73:ba:2e:e3:e5:95:ff:5f:e6:
                    58:eb:de:b5:2c:0f:fd:18:84:ed:62:23:26:da:d9:
                    18:43
                Exponent: 65537 (0x10001)
        X509v3 extensions:
            X509v3 Extended Key Usage: 
                TLS Web Server Authentication
            X509v3 Subject Key Identifier: 
                7D:F3:CE:A0:F9:8C:44:4E:11:2F:42:09:DB:5B:B4:4C:4B:97:BE:56
            X509v3 Authority Key Identifier: 
                01:A7:23:05:92:46:72:D3:EC:74:29:E9:06:A8:3C:65:EC:84:55:99
    Signature Algorithm: sha256WithRSAEncryption
    Signature Value:
        76:6a:e5:9c:d8:90:23:d8:e8:66:10:c5:cb:12:34:1a:43:e4:
        a7:18:1a:ac:6f:8a:91:3b:ac:98:29:2a:92:c6:49:26:f1:c0:
        6f:9a:50:cd:8f:a4:46:f4:c3:70:7c:70:b5:8f:de:b8:aa:a2:
        ce:81:e6:b1:7b:7f:03:ad:ed:4e:e4:63:68:0b:36:2a:de:db:
        38:d2:c7:0a:11:8c:10:a3:ac:fd:79:6a:3b:c3:5c:8e:13:5b:
        6f:f5:53:af:51:fc:dd:50:13:9a:7e:e0:c2:e6:78:e3:48:79:
        d3:ee:9f:3d:44:48:2a:9f:5b:89:73:b7:cd:88:b7:c8:c5:da:
        d0:b1:8f:be:af:4b:89:2e:82:d0:78:b3:d7:af:eb:f4:c9:a0:
        e6:d7:f3:98:de:0a:2e:2a:fe:76:ac:bc:75:b7:9d:3e:3e:42:
        eb:dd:2c:ed:f4:bd:88:69:fa:e3:7a:13:de:7b:4b:a0:9a:64:
        64:bd:c0:22:9e:ac:0d:76:27:d6:95:8f:3d:03:92:08:2f:15:
        dd:46:49:19:8d:d3:57:8b:da:ec:5e:65:6d:97:7f:62:9d:4d:
        c0:27:fa:6b:d4:1b:fb:56:24:58:c2:ae:26:51:2b:39:70:70:
        b4:39:42:e0:67:ce:23:6b:a8:04:cb:e4:83:55:20:6c:87:2d:
        1c:c1:28:8b:f9:c3:33:5d:a9:1e:62:10:ab:5c:96:df:10:7d:
        56:56:fa:db:3d:82:42:5d:42:b9:cf:67:c6:36:23:79:89:1f:
        50:af:37:31:5d:c7:18:44:25:4e:73:f7:1e:98:6c:8c:a3:79:
        20:33:cb:ca:f9:79:d1:b8:42:91:9d:3b:50:7f:82:dd:8a:02:
        2b:a2:9d:15:cc:86:ad:04:04:c3:a3:2c:b6:9a:21:1f:0c:cf:
        a4:ff:44:db:a8:e2:40:09:6b:08:f2:ec:41:52:3b:40:2d:e0:
        44:75:9c:e9:70:ea:e9:37:a6:64:6f:6a:5e:bc:ad:b9:53:2b:
        b0:28:3a:85:a9:9b:6a:6b:29:b1:13:67:d8:df:27:e1:e3:52:
        17:60:7b:2c:b2:d4:ae:62:c6:1a:fc:16:e3:63:5e:8f:8b:96:
        81:b3:e9:07:8f:c1:31:25:2b:89:79:12:90:d3:e7:fc:0e:b8:
        e6:7e:ce:36:aa:1a:67:db:73:d6:43:1c:37:f6:6d:a0:ef:b5:
        18:61:cf:3a:a1:2e:35:f3:6a:f2:9c:fe:91:00:2f:12:b7:82:
        30:a2:20:f2:e4:94:52:7a:e7:5c:e2:1f:17:8a:5c:97:e7:d7:
        8a:71:69:2e:80:91:1f:38:87:19:3f:c2:6d:b1:8d:f1:d8:fc:
        e0:44:fa:0a:80:b7:4b:a5
-----BEGIN CERTIFICATE-----
MIIEwzCCAqugAwIBAgIBATANBgkqhkiG9w0BAQsFADCBlDELMAkGA1UEBhMCRVMx
EjAQBgNVBAgMCUJhcmNlbG9uYTESMBAGA1UEBwwJQmFyY2Vsb25hMQ0wCwYDVQQK
DAROU0FBMSAwHgYJKoZIhvcNAQkBFhFhZG1pbkBleGFtcGxlLm9yZzEsMCoGA1UE
AwwjUmFkaXVzIFNlcnZlciBDZXJ0aWZpY2F0ZSBBdXRob3JpdHkwHhcNMjQwNTEx
MTY0OTU4WhcNMjQwNzEwMTY0OTU4WjBcMQswCQYDVQQGEwJFUzESMBAGA1UECAwJ
QmFyY2Vsb25hMQ0wCwYDVQQKDAROU0FBMRYwFAYDVQQLDA1SYWRpdXMgU2VydmVy
MRIwEAYDVQQDDAkxMjcuMC4wLjEwggEiMA0GCSqGSIb3DQEBAQUAA4IBDwAwggEK
AoIBAQCxFnmPjvkzf8AV3BQ8U3hpwOxgJLiChKDCqPcLFRvDW7pxrlLP023iVWvE
1eROyxslpiFWlkPeyZ8XDEaXR7KVGA8Lfr/rF5fsvxeOEYiC0raf6BDXQXxYpnou
CTRQLQRWcCM0odvY3iPj0SnuAuXJLpwIsEBBwRw5R388y4aIS3GLqIsYAdNt/mtI
ctGd3qP5s59OrrfcB4bPWgZ2bHEBuEXCG16wwhTMm+y75InuSkxCUuzMWlVG/PhW
shhTP4SZZ8KZbbJJs2LZCyg+eTKHiSFavdOG4TnCIZSfQygKUA5asUIQ1nO6LuPl
lf9f5ljr3rUsD/0YhO1iIyba2RhDAgMBAAGjVzBVMBMGA1UdJQQMMAoGCCsGAQUF
BwMBMB0GA1UdDgQWBBR9886g+YxEThEvQgnbW7RMS5e+VjAfBgNVHSMEGDAWgBQB
pyMFkkZy0+x0KekGqDxl7IRVmTANBgkqhkiG9w0BAQsFAAOCAgEAdmrlnNiQI9jo
ZhDFyxI0GkPkpxgarG+KkTusmCkqksZJJvHAb5pQzY+kRvTDcHxwtY/euKqizoHm
sXt/A63tTuRjaAs2Kt7bONLHChGMEKOs/XlqO8NcjhNbb/VTr1H83VATmn7gwuZ4
40h50+6fPURIKp9biXO3zYi3yMXa0LGPvq9LiS6C0Hiz16/r9Mmg5tfzmN4KLir+
dqy8dbedPj5C690s7fS9iGn643oT3ntLoJpkZL3AIp6sDXYn1pWPPQOSCC8V3UZJ
GY3TV4va7F5lbZd/Yp1NwCf6a9Qb+1YkWMKuJlErOXBwtDlC4GfOI2uoBMvkg1Ug
bIctHMEoi/nDM12pHmIQq1yW3xB9Vlb62z2CQl1Cuc9nxjYjeYkfUK83MV3HGEQl
TnP3HphsjKN5IDPLyvl50bhCkZ07UH+C3YoCK6KdFcyGrQQEw6MstpohHwzPpP9E
26jiQAlrCPLsQVI7QC3gRHWc6XDq6TemZG9qXrytuVMrsCg6hambamspsRNn2N8n
4eNSF2B7LLLUrmLGGvwW42Nej4uWgbPpB4/BMSUriXkSkNPn/A645n7ONqoaZ9tz
1kMcN/ZtoO+1GGHPOqEuNfNq8pz+kQAvEreCMKIg8uSUUnrnXOIfF4pcl+fXinFp
LoCRHziHGT/CbbGN8dj84ET6CoC3S6U=
-----END CERTIFICATE-----
